target datalayout = "e-m:e-p270:32:32-p271:32:32-p272:64:64-i64:64-i128:128-f80:128-n8:16:32:64-S128"
target triple = "x86_64-pc-linux-gnu"

%struct.ui_st = type { ptr, ptr, ptr, %struct.crypto_ex_data_st, i32, ptr }
%struct.crypto_ex_data_st = type { ptr, ptr }
%struct.ui_string_st = type { i32, ptr, i32, ptr, i64, %union.anon, i32 }
%union.anon = type { %struct.anon.0 }
%struct.anon.0 = type { ptr, ptr, ptr }
%struct.anon = type { i32, i32, ptr }

@.str = private unnamed_addr constant [30 x i8] c"../openssl/crypto/ui/ui_lib.c\00", align 1

; Function Attrs: nounwind uwtable
define internal void @free_string(ptr noundef %0) #0 {
  %2 = alloca ptr, align 8
  store ptr %0, ptr %2, align 8, !tbaa !26
  %3 = load ptr, ptr %2, align 8, !tbaa !26
  %4 = getelementptr inbounds nuw %struct.ui_string_st, ptr %3, i32 0, i32 6
  %5 = load i32, ptr %4, align 8, !tbaa !28
  %6 = and i32 %5, 1
  %7 = icmp ne i32 %6, 0
  br i1 %7, label %8, label %30

8:                                                ; preds = %1
  %9 = load ptr, ptr %2, align 8, !tbaa !26
  %10 = getelementptr inbounds nuw %struct.ui_string_st, ptr %9, i32 0, i32 1
  %11 = load ptr, ptr %10, align 8, !tbaa !31
  call void @CRYPTO_free(ptr noundef %11, ptr noundef @.str, i32 noundef 53)
  %12 = load ptr, ptr %2, align 8, !tbaa !26
  %13 = getelementptr inbounds nuw %struct.ui_string_st, ptr %12, i32 0, i32 0
  %14 = load i32, ptr %13, align 8, !tbaa !32
  switch i32 %14, label %29 [
    i32 3, label %15
    i32 0, label %28
    i32 1, label %28
    i32 2, label %28
    i32 5, label %28
    i32 4, label %28
  ]

15:                                               ; preds = %8
  %16 = load ptr, ptr %2, align 8, !tbaa !26
  %17 = getelementptr inbounds nuw %struct.ui_string_st, ptr %16, i32 0, i32 5
  %18 = getelementptr inbounds nuw %struct.anon.0, ptr %17, i32 0, i32 0
  %19 = load ptr, ptr %18, align 8, !tbaa !33
  call void @CRYPTO_free(ptr noundef %19, ptr noundef @.str, i32 noundef 56)
  %20 = load ptr, ptr %2, align 8, !tbaa !26
  %21 = getelementptr inbounds nuw %struct.ui_string_st, ptr %20, i32 0, i32 5
  %22 = getelementptr inbounds nuw %struct.anon.0, ptr %21, i32 0, i32 1
  %23 = load ptr, ptr %22, align 8, !tbaa !33
  call void @CRYPTO_free(ptr noundef %23, ptr noundef @.str, i32 noundef 57)
  %24 = load ptr, ptr %2, align 8, !tbaa !26
  %25 = getelementptr inbounds nuw %struct.ui_string_st, ptr %24, i32 0, i32 5
  %26 = getelementptr inbounds nuw %struct.anon.0, ptr %25, i32 0, i32 2
  %27 = load ptr, ptr %26, align 8, !tbaa !33
  call void @CRYPTO_free(ptr noundef %27, ptr noundef @.str, i32 noundef 58)
  br label %29

28:                                               ; preds = %8, %8, %8, %8, %8
  br label %29

29:                                               ; preds = %8, %28, %15
  br label %30

30:                                               ; preds = %29, %1
  %31 = load ptr, ptr %2, align 8, !tbaa !26
  call void @CRYPTO_free(ptr noundef %31, ptr noundef @.str, i32 noundef 68)
  ret void
}

; Function Attrs: inlinehint nounwind uwtable
define internal ptr @ossl_check_UI_STRING_type(ptr noundef %0) #3 {
  %2 = alloca ptr, align 8
  store ptr %0, ptr %2, align 8, !tbaa !26
  %3 = load ptr, ptr %2, align 8, !tbaa !26
  ret ptr %3
}

; Function Attrs: inlinehint nounwind uwtable
define internal ptr @ossl_check_UI_STRING_sk_type(ptr noundef %0) #3 {
  %2 = alloca ptr, align 8
  store ptr %0, ptr %2, align 8, !tbaa !24
  %3 = load ptr, ptr %2, align 8, !tbaa !24
  ret ptr %3
}

; Function Attrs: nounwind uwtable
define internal i32 @allocate_string_stack(ptr noundef %0) #0 {
  %2 = alloca i32, align 4
  %3 = alloca ptr, align 8
  store ptr %0, ptr %3, align 8, !tbaa !8
  %4 = load ptr, ptr %3, align 8, !tbaa !8
  %5 = getelementptr inbounds nuw %struct.ui_st, ptr %4, i32 0, i32 1
  %6 = load ptr, ptr %5, align 8, !tbaa !23
  %7 = icmp eq ptr %6, null
  br i1 %7, label %8, label %18

8:                                                ; preds = %1
  %9 = call ptr @OPENSSL_sk_new_null()
  %10 = load ptr, ptr %3, align 8, !tbaa !8
  %11 = getelementptr inbounds nuw %struct.ui_st, ptr %10, i32 0, i32 1
  store ptr %9, ptr %11, align 8, !tbaa !23
  %12 = load ptr, ptr %3, align 8, !tbaa !8
  %13 = getelementptr inbounds nuw %struct.ui_st, ptr %12, i32 0, i32 1
  %14 = load ptr, ptr %13, align 8, !tbaa !23
  %15 = icmp eq ptr %14, null
  br i1 %15, label %16, label %17

16:                                               ; preds = %8
  store i32 -1, ptr %2, align 4
  br label %19

17:                                               ; preds = %8
  br label %18

18:                                               ; preds = %17, %1
  store i32 0, ptr %2, align 4
  br label %19

19:                                               ; preds = %18, %16
  %20 = load i32, ptr %2, align 4
  ret i32 %20
}

; Function Attrs: nounwind uwtable
define internal i32 @general_allocate_string(ptr noundef %0, ptr noundef %1, i32 noundef %2, i32 noundef %3, i32 noundef %4, ptr noundef %5, i32 noundef %6, i32 noundef %7, ptr noundef %8) #0 {
  %10 = alloca ptr, align 8
  %11 = alloca ptr, align 8
  %12 = alloca i32, align 4
  %13 = alloca i32, align 4
  %14 = alloca i32, align 4
  %15 = alloca ptr, align 8
  %16 = alloca i32, align 4
  %17 = alloca i32, align 4
  %18 = alloca ptr, align 8
  %19 = alloca i32, align 4
  %20 = alloca ptr, align 8
  store ptr %0, ptr %10, align 8, !tbaa !8
  store ptr %1, ptr %11, align 8, !tbaa !34
  store i32 %2, ptr %12, align 4, !tbaa !35
  store i32 %3, ptr %13, align 4, !tbaa !35
  store i32 %4, ptr %14, align 4, !tbaa !35
  store ptr %5, ptr %15, align 8, !tbaa !34
  store i32 %6, ptr %16, align 4, !tbaa !35
  store i32 %7, ptr %17, align 4, !tbaa !35
  store ptr %8, ptr %18, align 8, !tbaa !34
  call void @llvm.lifetime.start.p0(i64 4, ptr %19) #7
  store i32 -1, ptr %19, align 4, !tbaa !35
  call void @llvm.lifetime.start.p0(i64 8, ptr %20) #7
  %21 = load ptr, ptr %10, align 8, !tbaa !8
  %22 = load ptr, ptr %11, align 8, !tbaa !34
  %23 = load i32, ptr %12, align 4, !tbaa !35
  %24 = load i32, ptr %13, align 4, !tbaa !35
  %25 = load i32, ptr %14, align 4, !tbaa !35
  %26 = load ptr, ptr %15, align 8, !tbaa !34
  %27 = call ptr @general_allocate_prompt(ptr noundef %21, ptr noundef %22, i32 noundef %23, i32 noundef %24, i32 noundef %25, ptr noundef %26)
  store ptr %27, ptr %20, align 8, !tbaa !26
  %28 = load ptr, ptr %20, align 8, !tbaa !26
  %29 = icmp ne ptr %28, null
  br i1 %29, label %30, label %64

30:                                               ; preds = %9
  %31 = load ptr, ptr %10, align 8, !tbaa !8
  %32 = call i32 @allocate_string_stack(ptr noundef %31)
  %33 = icmp sge i32 %32, 0
  br i1 %33, label %34, label %61

34:                                               ; preds = %30
  %35 = load i32, ptr %16, align 4, !tbaa !35
  %36 = load ptr, ptr %20, align 8, !tbaa !26
  %37 = getelementptr inbounds nuw %struct.ui_string_st, ptr %36, i32 0, i32 5
  %38 = getelementptr inbounds nuw %struct.anon, ptr %37, i32 0, i32 0
  store i32 %35, ptr %38, align 8, !tbaa !33
  %39 = load i32, ptr %17, align 4, !tbaa !35
  %40 = load ptr, ptr %20, align 8, !tbaa !26
  %41 = getelementptr inbounds nuw %struct.ui_string_st, ptr %40, i32 0, i32 5
  %42 = getelementptr inbounds nuw %struct.anon, ptr %41, i32 0, i32 1
  store i32 %39, ptr %42, align 4, !tbaa !33
  %43 = load ptr, ptr %18, align 8, !tbaa !34
  %44 = load ptr, ptr %20, align 8, !tbaa !26
  %45 = getelementptr inbounds nuw %struct.ui_string_st, ptr %44, i32 0, i32 5
  %46 = getelementptr inbounds nuw %struct.anon, ptr %45, i32 0, i32 2
  store ptr %43, ptr %46, align 8, !tbaa !33
  %47 = load ptr, ptr %10, align 8, !tbaa !8
  %48 = getelementptr inbounds nuw %struct.ui_st, ptr %47, i32 0, i32 1
  %49 = load ptr, ptr %48, align 8, !tbaa !23
  %50 = call ptr @ossl_check_UI_STRING_sk_type(ptr noundef %49)
  %51 = load ptr, ptr %20, align 8, !tbaa !26
  %52 = call ptr @ossl_check_UI_STRING_type(ptr noundef %51)
  %53 = call i32 @OPENSSL_sk_push(ptr noundef %50, ptr noundef %52)
  store i32 %53, ptr %19, align 4, !tbaa !35
  %54 = load i32, ptr %19, align 4, !tbaa !35
  %55 = icmp sle i32 %54, 0
  br i1 %55, label %56, label %60

56:                                               ; preds = %34
  %57 = load i32, ptr %19, align 4, !tbaa !35
  %58 = add nsw i32 %57, -1
  store i32 %58, ptr %19, align 4, !tbaa !35
  %59 = load ptr, ptr %20, align 8, !tbaa !26
  call void @free_string(ptr noundef %59)
  br label %60

60:                                               ; preds = %56, %34
  br label %63

61:                                               ; preds = %30
  %62 = load ptr, ptr %20, align 8, !tbaa !26
  call void @free_string(ptr noundef %62)
  br label %63

63:                                               ; preds = %61, %60
  br label %64

64:                                               ; preds = %63, %9
  %65 = load i32, ptr %19, align 4, !tbaa !35
  call void @llvm.lifetime.end.p0(i64 8, ptr %20) #7
  call void @llvm.lifetime.end.p0(i64 4, ptr %19) #7
  ret i32 %65
}