; Function Attrs: nounwind uwtable
define internal fastcc range(i32 1, 0) i32 @general_allocate_string(ptr noundef captures(none) %0, ptr noundef %1, i32 noundef range(i32 0, 2) %2, i32 noundef range(i32 1, 6) %3, i32 noundef %4, ptr noundef %5, i32 noundef %6, i32 noundef %7, ptr noundef %8) unnamed_addr #0 {
  %10 = tail call fastcc ptr @general_allocate_prompt(ptr noundef %1, i32 noundef %2, i32 noundef %3, i32 noundef %4, ptr noundef %5)
  %.not = icmp eq ptr %10, null
  br i1 %.not, label %49, label %11

11:                                               ; preds = %9
  %12 = getelementptr inbounds nuw i8, ptr %0, i64 8
  %13 = load ptr, ptr %12, align 8, !tbaa !20
  %14 = icmp eq ptr %13, null
  br i1 %14, label %15, label %18

15:                                               ; preds = %11
  %16 = tail call ptr @OPENSSL_sk_new_null() #8
  store ptr %16, ptr %12, align 8, !tbaa !20
  %17 = icmp eq ptr %16, null
  br i1 %17, label %allocate_string_stack.exit, label %18

18:                                               ; preds = %11, %15
  %19 = phi ptr [ %13, %11 ], [ %16, %15 ]
  %20 = getelementptr inbounds nuw i8, ptr %10, i64 40
  store i32 %6, ptr %20, align 8, !tbaa !26
  %21 = getelementptr inbounds nuw i8, ptr %10, i64 44
  store i32 %7, ptr %21, align 4, !tbaa !26
  %22 = getelementptr inbounds nuw i8, ptr %10, i64 48
  store ptr %8, ptr %22, align 8, !tbaa !26
  %23 = tail call i32 @OPENSSL_sk_push(ptr noundef nonnull %19, ptr noundef nonnull %10) #8
  %24 = icmp slt i32 %23, 1
  br i1 %24, label %25, label %49

25:                                               ; preds = %18
  %26 = add nsw i32 %23, -1
  %27 = getelementptr inbounds nuw i8, ptr %10, i64 64
  %28 = load i32, ptr %27, align 8, !tbaa !21
  %29 = and i32 %28, 1
  %.not.i = icmp eq i32 %29, 0
  br i1 %.not.i, label %.sink.split, label %30

30:                                               ; preds = %25
  %31 = getelementptr inbounds nuw i8, ptr %10, i64 8
  %32 = load ptr, ptr %31, align 8, !tbaa !24
  tail call void @CRYPTO_free(ptr noundef %32, ptr noundef nonnull @.str, i32 noundef 53) #8
  %33 = load i32, ptr %10, align 8, !tbaa !25
  %cond.i = icmp eq i32 %33, 3
  br i1 %cond.i, label %34, label %.sink.split

34:                                               ; preds = %30
  %35 = load ptr, ptr %20, align 8, !tbaa !26
  tail call void @CRYPTO_free(ptr noundef %35, ptr noundef nonnull @.str, i32 noundef 56) #8
  br label %.sink.split.sink.split

allocate_string_stack.exit:                       ; preds = %15
  %36 = getelementptr inbounds nuw i8, ptr %10, i64 64
  %37 = load i32, ptr %36, align 8, !tbaa !21
  %38 = and i32 %37, 1
  %.not.i22 = icmp eq i32 %38, 0
  br i1 %.not.i22, label %.sink.split, label %39

39:                                               ; preds = %allocate_string_stack.exit
  %40 = getelementptr inbounds nuw i8, ptr %10, i64 8
  %41 = load ptr, ptr %40, align 8, !tbaa !24
  tail call void @CRYPTO_free(ptr noundef %41, ptr noundef nonnull @.str, i32 noundef 53) #8
  %42 = load i32, ptr %10, align 8, !tbaa !25
  %cond.i23 = icmp eq i32 %42, 3
  br i1 %cond.i23, label %43, label %.sink.split

43:                                               ; preds = %39
  %44 = getelementptr inbounds nuw i8, ptr %10, i64 40
  %45 = load ptr, ptr %44, align 8, !tbaa !26
  tail call void @CRYPTO_free(ptr noundef %45, ptr noundef nonnull @.str, i32 noundef 56) #8
  %46 = getelementptr inbounds nuw i8, ptr %10, i64 48
  br label %.sink.split.sink.split

.sink.split.sink.split:                           ; preds = %34, %43
  %.sink.in = phi ptr [ %46, %43 ], [ %22, %34 ]
  %.0.ph.ph = phi i32 [ -1, %43 ], [ %26, %34 ]
  %.sink = load ptr, ptr %.sink.in, align 8, !tbaa !26
  tail call void @CRYPTO_free(ptr noundef %.sink, ptr noundef nonnull @.str, i32 noundef 57) #8
  %47 = getelementptr inbounds nuw i8, ptr %10, i64 56
  %48 = load ptr, ptr %47, align 8, !tbaa !26
  tail call void @CRYPTO_free(ptr noundef %48, ptr noundef nonnull @.str, i32 noundef 58) #8
  br label %.sink.split

.sink.split:                                      ; preds = %.sink.split.sink.split, %39, %allocate_string_stack.exit, %30, %25
  %.0.ph = phi i32 [ %26, %25 ], [ %26, %30 ], [ -1, %allocate_string_stack.exit ], [ -1, %39 ], [ %.0.ph.ph, %.sink.split.sink.split ]
  tail call void @CRYPTO_free(ptr noundef nonnull %10, ptr noundef nonnull @.str, i32 noundef 68) #8
  br label %49

49:                                               ; preds = %.sink.split, %18, %9
  %.0 = phi i32 [ %23, %18 ], [ -1, %9 ], [ %.0.ph, %.sink.split ]
  ret i32 %.0
}